target datalayout = "e-m:e-p270:32:32-p271:32:32-p272:64:64-i64:64-i128:128-f80:128-n8:16:32:64-S128"
target triple = "x86_64-pc-linux-gnu"

%struct.Curl_llist = type { ptr, ptr, ptr, i64 }
%struct.curltime = type { i64, i32 }
%struct.Curl_llist_node = type { ptr, ptr, ptr, ptr }
%struct.Curl_easy = type { i32, i64, i64, ptr, %struct.Curl_llist_node, %struct.Curl_llist_node, i32, i32, %struct.Curl_message, %struct.easy_pollset, %struct.Names, ptr, ptr, ptr, ptr, %struct.SingleRequest, %struct.UserDefined, ptr, ptr, ptr, %struct.Progress, %struct.UrlState, ptr, %struct.PureInfo, %struct.curl_tlssessioninfo }
%struct.Curl_message = type { %struct.Curl_llist_node, %struct.CURLMsg }
%struct.CURLMsg = type { i32, ptr, %union.anon }
%union.anon = type { ptr }
%struct.easy_pollset = type { [5 x i32], i32, [5 x i8] }
%struct.Names = type { ptr, i32 }
%struct.SingleRequest = type <{ i64, i64, i64, i64, %struct.curltime, i32, i32, i32, i32, i64, i32, i32, i8, i8, [2 x i8], i32, ptr, ptr, %struct.bufq, i64, i64, ptr, ptr, %union.anon.0, ptr, i8, i32, [3 x i8] }>
%struct.bufq = type { ptr, ptr, ptr, ptr, i64, i64, i64, i32 }
%union.anon.0 = type { ptr }
%struct.UserDefined = type <{ ptr, ptr, ptr, ptr, ptr, ptr, i64, i64, i64, ptr, ptr, i64, ptr, ptr, ptr, ptr, ptr, ptr, ptr, ptr, ptr, ptr, ptr, ptr, ptr, ptr, ptr, ptr, ptr, ptr, ptr, ptr, ptr, ptr, ptr, i64, i64, i64, i64, i64, i64, i64, i64, i64, ptr, ptr, %struct.curl_mimepart, ptr, ptr, ptr, i64, %struct.ssl_config_data, %struct.ssl_config_data, ptr, i16, i8, i8, %struct.ssl_general_config, i32, i32, i32, [4 x i8], ptr, ptr, i64, i32, i8, i8, i8, i8, ptr, ptr, ptr, i32, [4 x i8], [74 x ptr], [8 x ptr], i32, i32, i32, [4 x i8], ptr, i32, [4 x i8], ptr, ptr, ptr, ptr, ptr, i32, i32, i32, i32, i32, i32, i32, i32, i64, ptr, ptr, i64, ptr, i64, ptr, ptr, ptr, ptr, i32, i16, i16, i16, i8, i8, i8, i8, i8, i8, i8, i8, i64, [6 x i8] }>
%struct.curl_mimepart = type { ptr, ptr, i32, i32, ptr, ptr, ptr, ptr, ptr, ptr, ptr, ptr, ptr, ptr, ptr, i64, %struct.mime_state, ptr, %struct.mime_encoder_state, i64 }
%struct.mime_state = type { i32, ptr, i64 }
%struct.mime_encoder_state = type { i64, i64, i64, [256 x i8] }
%struct.ssl_config_data = type { %struct.ssl_primary_config, i64, ptr, ptr, ptr, ptr, ptr, ptr, ptr, i16 }
%struct.ssl_primary_config = type { ptr, ptr, ptr, ptr, ptr, ptr, ptr, ptr, ptr, ptr, ptr, ptr, ptr, ptr, i8, i32, i8, i8 }
%struct.ssl_general_config = type { i32 }
%struct.Progress = type { i64, %struct.pgrs_dir, %struct.pgrs_dir, i64, i64, i32, i32, i64, i64, i64, i64, i64, i64, i64, i64, i64, %struct.curltime, %struct.curltime, %struct.curltime, %struct.curltime, %struct.curltime, [6 x i64], [6 x %struct.curltime], i32, i8 }
%struct.pgrs_dir = type { i64, i64, i64, %struct.pgrs_measure }
%struct.pgrs_measure = type { %struct.curltime, i64 }
%struct.UrlState = type { %struct.curltime, i64, i64, %struct.dynbuf, ptr, i64, ptr, i32, i32, i32, ptr, i32, i64, i32, ptr, %struct.digestdata, %struct.digestdata, %struct.auth, %struct.auth, %struct.Curl_async, ptr, i8, %struct.curltime, %struct.Curl_tree, %struct.Curl_llist, [15 x %struct.time_node], ptr, ptr, i64, i64, i64, i64, [32 x i8], i64, ptr, ptr, ptr, %struct.urlpieces, ptr, ptr, ptr, ptr, ptr, i64, %struct.dynbuf, %struct.Curl_llist, [2 x %struct.curl_header], ptr, i32, ptr, ptr, %struct.store_netrc, %struct.dynamically_allocated_data, i8, i8, i8, i8, i32 }
%struct.digestdata = type { ptr, ptr, ptr, ptr, ptr, ptr, i32, i8, i8 }
%struct.auth = type { i64, i64, i64, i8 }
%struct.Curl_async = type { ptr, ptr, ptr, ptr, i32, i32, i8 }
%struct.Curl_tree = type { ptr, ptr, ptr, ptr, %struct.curltime, ptr }
%struct.time_node = type { %struct.Curl_llist_node, %struct.curltime, i32 }
%struct.urlpieces = type { ptr, ptr, ptr, ptr, ptr, ptr, ptr, ptr }
%struct.dynbuf = type { ptr, i64, i64, i64 }
%struct.curl_header = type { ptr, ptr, i64, i64, i32, ptr }
%struct.store_netrc = type { %struct.dynbuf, ptr, i8 }
%struct.dynamically_allocated_data = type { ptr, ptr, ptr, ptr, ptr, ptr, ptr, ptr, ptr, ptr, ptr, ptr, ptr, ptr }
%struct.PureInfo = type { i32, i32, i32, i64, i64, i64, i64, i64, i64, i64, ptr, ptr, i64, i32, %struct.ip_quadruple, i32, ptr, i32, %struct.curl_certinfo, i32, i8 }
%struct.ip_quadruple = type { [46 x i8], [46 x i8], i32, i32 }
%struct.curl_certinfo = type { i32, ptr }
%struct.curl_tlssessioninfo = type { i32, ptr }
%struct.connectdata = type { %struct.Curl_llist_node, ptr, ptr, i64, ptr, i64, ptr, ptr, %struct.hostname, ptr, ptr, %struct.hostname, %struct.proxy_info, %struct.proxy_info, %struct.ip_quadruple, %struct.ip_quadruple, ptr, ptr, ptr, ptr, ptr, %struct.curltime, %struct.curltime, %struct.curltime, [2 x i32], [2 x ptr], [2 x ptr], [2 x ptr], %struct.anon, %struct.easy_pollset, %struct.ssl_primary_config, %struct.ssl_primary_config, %struct.ConnectBits, ptr, ptr, %struct.curltime, i32, i32, %struct.Curl_llist, i32, i32, %struct.ntlmdata, %struct.ntlmdata, %union.anon.1, ptr, ptr, i16, i32, i32, i32, i32, i16, i16, i8, i8, i8, i8, i8, i8, i8 }
%struct.hostname = type { ptr, ptr, ptr, ptr }
%struct.proxy_info = type { %struct.hostname, i32, i8, ptr, ptr }
%struct.anon = type { [2 x %struct.curltime], i32 }
%struct.ConnectBits = type { i64 }
%struct.ntlmdata = type { i32, [8 x i8], i32, ptr }
%union.anon.1 = type { %struct.ftp_conn }
%struct.ftp_conn = type { %struct.pingpong, ptr, ptr, ptr, ptr, ptr, ptr, ptr, i8, i64, ptr, i64, i32, i32, i32, i32, i32, i16, i8, i8, i8, i8, i8 }
%struct.pingpong = type { i64, i8, ptr, i64, i64, %struct.curltime, i64, %struct.dynbuf, %struct.dynbuf, i64, i64, ptr, ptr }
%struct.Curl_handler = type { ptr, ptr, ptr, ptr, ptr, ptr, ptr, ptr, ptr, ptr, ptr, ptr, ptr, ptr, ptr, ptr, ptr, ptr, i32, i32, i32, i32 }

; Function Attrs: nounwind uwtable
define internal i32 @perform_getsock(ptr noundef %0, ptr noundef %1) #0 {
  %3 = alloca i32, align 4
  %4 = alloca ptr, align 8
  %5 = alloca ptr, align 8
  %6 = alloca ptr, align 8
  %7 = alloca i32, align 4
  %8 = alloca i32, align 4
  %9 = alloca i32, align 4
  store ptr %0, ptr %4, align 8, !tbaa !43
  store ptr %1, ptr %5, align 8, !tbaa !156
  call void @llvm.lifetime.start.p0(i64 8, ptr %6) #9
  %10 = load ptr, ptr %4, align 8, !tbaa !43
  %11 = getelementptr inbounds nuw %struct.Curl_easy, ptr %10, i32 0, i32 3
  %12 = load ptr, ptr %11, align 8, !tbaa !116
  store ptr %12, ptr %6, align 8, !tbaa !126
  %13 = load ptr, ptr %6, align 8, !tbaa !126
  %14 = icmp ne ptr %13, null
  br i1 %14, label %16, label %15

15:                                               ; preds = %2
  store i32 0, ptr %3, align 4
  store i32 1, ptr %7, align 4
  br label %94

16:                                               ; preds = %2
  %17 = load ptr, ptr %6, align 8, !tbaa !126
  %18 = getelementptr inbounds nuw %struct.connectdata, ptr %17, i32 0, i32 33
  %19 = load ptr, ptr %18, align 8, !tbaa !134
  %20 = getelementptr inbounds nuw %struct.Curl_handler, ptr %19, i32 0, i32 11
  %21 = load ptr, ptr %20, align 8, !tbaa !273
  %22 = icmp ne ptr %21, null
  br i1 %22, label %23, label %33

23:                                               ; preds = %16
  %24 = load ptr, ptr %6, align 8, !tbaa !126
  %25 = getelementptr inbounds nuw %struct.connectdata, ptr %24, i32 0, i32 33
  %26 = load ptr, ptr %25, align 8, !tbaa !134
  %27 = getelementptr inbounds nuw %struct.Curl_handler, ptr %26, i32 0, i32 11
  %28 = load ptr, ptr %27, align 8, !tbaa !273
  %29 = load ptr, ptr %4, align 8, !tbaa !43
  %30 = load ptr, ptr %6, align 8, !tbaa !126
  %31 = load ptr, ptr %5, align 8, !tbaa !156
  %32 = call i32 %28(ptr noundef %29, ptr noundef %30, ptr noundef %31)
  store i32 %32, ptr %3, align 4
  store i32 1, ptr %7, align 4
  br label %94

33:                                               ; preds = %16
  call void @llvm.lifetime.start.p0(i64 4, ptr %8) #9
  store i32 0, ptr %8, align 4, !tbaa !30
  call void @llvm.lifetime.start.p0(i64 4, ptr %9) #9
  store i32 0, ptr %9, align 4, !tbaa !30
  %34 = load ptr, ptr %4, align 8, !tbaa !43
  %35 = getelementptr inbounds nuw %struct.Curl_easy, ptr %34, i32 0, i32 15
  %36 = getelementptr inbounds nuw %struct.SingleRequest, ptr %35, i32 0, i32 11
  %37 = load i32, ptr %36, align 4, !tbaa !274
  %38 = and i32 %37, 21
  %39 = icmp eq i32 %38, 1
  br i1 %39, label %40, label %55

40:                                               ; preds = %33
  br label %41

41:                                               ; preds = %40
  br label %42

42:                                               ; preds = %41
  br label %43

43:                                               ; preds = %42
  %44 = load i32, ptr %9, align 4, !tbaa !30
  %45 = shl i32 1, %44
  %46 = load i32, ptr %8, align 4, !tbaa !30
  %47 = or i32 %46, %45
  store i32 %47, ptr %8, align 4, !tbaa !30
  %48 = load ptr, ptr %6, align 8, !tbaa !126
  %49 = getelementptr inbounds nuw %struct.connectdata, ptr %48, i32 0, i32 36
  %50 = load i32, ptr %49, align 8, !tbaa !198
  %51 = load ptr, ptr %5, align 8, !tbaa !156
  %52 = load i32, ptr %9, align 4, !tbaa !30
  %53 = zext i32 %52 to i64
  %54 = getelementptr inbounds nuw i32, ptr %51, i64 %53
  store i32 %50, ptr %54, align 4, !tbaa !30
  br label %55

55:                                               ; preds = %43, %33
  %56 = load ptr, ptr %4, align 8, !tbaa !43
  %57 = call zeroext i1 @Curl_req_want_send(ptr noundef %56)
  br i1 %57, label %58, label %92

58:                                               ; preds = %55
  %59 = load ptr, ptr %6, align 8, !tbaa !126
  %60 = getelementptr inbounds nuw %struct.connectdata, ptr %59, i32 0, i32 36
  %61 = load i32, ptr %60, align 8, !tbaa !198
  %62 = load ptr, ptr %6, align 8, !tbaa !126
  %63 = getelementptr inbounds nuw %struct.connectdata, ptr %62, i32 0, i32 37
  %64 = load i32, ptr %63, align 4, !tbaa !199
  %65 = icmp ne i32 %61, %64
  br i1 %65, label %69, label %66

66:                                               ; preds = %58
  %67 = load i32, ptr %8, align 4, !tbaa !30
  %68 = icmp eq i32 %67, 0
  br i1 %68, label %69, label %86

69:                                               ; preds = %66, %58
  %70 = load i32, ptr %8, align 4, !tbaa !30
  %71 = icmp ne i32 %70, 0
  br i1 %71, label %72, label %75

72:                                               ; preds = %69
  %73 = load i32, ptr %9, align 4, !tbaa !30
  %74 = add i32 %73, 1
  store i32 %74, ptr %9, align 4, !tbaa !30
  br label %75

75:                                               ; preds = %72, %69
  br label %76

76:                                               ; preds = %75
  br label %77

77:                                               ; preds = %76
  br label %78

78:                                               ; preds = %77
  %79 = load ptr, ptr %6, align 8, !tbaa !126
  %80 = getelementptr inbounds nuw %struct.connectdata, ptr %79, i32 0, i32 37
  %81 = load i32, ptr %80, align 4, !tbaa !199
  %82 = load ptr, ptr %5, align 8, !tbaa !156
  %83 = load i32, ptr %9, align 4, !tbaa !30
  %84 = zext i32 %83 to i64
  %85 = getelementptr inbounds nuw i32, ptr %82, i64 %84
  store i32 %81, ptr %85, align 4, !tbaa !30
  br label %86

86:                                               ; preds = %78, %66
  %87 = load i32, ptr %9, align 4, !tbaa !30
  %88 = add i32 16, %87
  %89 = shl i32 1, %88
  %90 = load i32, ptr %8, align 4, !tbaa !30
  %91 = or i32 %90, %89
  store i32 %91, ptr %8, align 4, !tbaa !30
  br label %92

92:                                               ; preds = %86, %55
  %93 = load i32, ptr %8, align 4, !tbaa !30
  store i32 %93, ptr %3, align 4
  store i32 1, ptr %7, align 4
  call void @llvm.lifetime.end.p0(i64 4, ptr %9) #9
  call void @llvm.lifetime.end.p0(i64 4, ptr %8) #9
  br label %94

94:                                               ; preds = %92, %23, %15
  call void @llvm.lifetime.end.p0(i64 8, ptr %6) #9
  %95 = load i32, ptr %3, align 4
  ret i32 %95
}