; Function Attrs: nounwind uwtable
define internal i32 @perform_getsock(ptr noundef %0, ptr noundef %1) #0 {
  %3 = getelementptr inbounds nuw i8, ptr %0, i64 24
  %4 = load ptr, ptr %3, align 8, !tbaa !109
  %.not = icmp eq ptr %4, null
  br i1 %.not, label %35, label %5

5:                                                ; preds = %2
  %6 = getelementptr inbounds nuw i8, ptr %4, i64 960
  %7 = load ptr, ptr %6, align 8, !tbaa !124
  %8 = getelementptr inbounds nuw i8, ptr %7, i64 88
  %9 = load ptr, ptr %8, align 8, !tbaa !252
  %.not31 = icmp eq ptr %9, null
  br i1 %.not31, label %12, label %10

10:                                               ; preds = %5
  %11 = tail call i32 %9(ptr noundef nonnull %0, ptr noundef nonnull %4, ptr noundef %1) #19
  br label %35

12:                                               ; preds = %5
  %13 = getelementptr inbounds nuw i8, ptr %0, i64 316
  %14 = load i32, ptr %13, align 4, !tbaa !253
  %15 = and i32 %14, 21
  %16 = icmp ne i32 %15, 1
  br i1 %16, label %20, label %17

17:                                               ; preds = %12
  %18 = getelementptr inbounds nuw i8, ptr %4, i64 992
  %19 = load i32, ptr %18, align 8, !tbaa !197
  store i32 %19, ptr %1, align 4, !tbaa !28
  br label %20

20:                                               ; preds = %17, %12
  %.026 = phi i32 [ 1, %17 ], [ 0, %12 ]
  %21 = tail call zeroext i1 @Curl_req_want_send(ptr noundef nonnull %0) #19
  br i1 %21, label %22, label %35

22:                                               ; preds = %20
  %23 = getelementptr inbounds nuw i8, ptr %4, i64 992
  %24 = load i32, ptr %23, align 8, !tbaa !197
  %25 = getelementptr inbounds nuw i8, ptr %4, i64 996
  %26 = load i32, ptr %25, align 4, !tbaa !198
  %27 = icmp ne i32 %24, %26
  %or.cond = or i1 %16, %27
  br i1 %or.cond, label %28, label %32

28:                                               ; preds = %22
  %not. = xor i1 %16, true
  %spec.select = zext i1 %not. to i32
  %29 = zext i1 %not. to i64
  %30 = getelementptr inbounds nuw i32, ptr %1, i64 %29
  store i32 %26, ptr %30, align 4, !tbaa !28
  %31 = or disjoint i32 %spec.select, 16
  br label %32

32:                                               ; preds = %22, %28
  %.0 = phi i32 [ %31, %28 ], [ 16, %22 ]
  %33 = shl nuw nsw i32 1, %.0
  %34 = or disjoint i32 %33, %.026
  br label %35

35:                                               ; preds = %20, %32, %2, %10
  %.028 = phi i32 [ %11, %10 ], [ 0, %2 ], [ %34, %32 ], [ %.026, %20 ]
  ret i32 %.028
}